target datalayout = "e-m:e-p270:32:32-p271:32:32-p272:64:64-i64:64-i128:128-f80:128-n8:16:32:64-S128"
target triple = "x86_64-pc-linux-gnu"

%struct.AVFilterContext = type { ptr, ptr, ptr, ptr, ptr, i32, ptr, ptr, i32, ptr, ptr, i32, i32, ptr, ptr, ptr, ptr, i32, ptr, i32, i32 }
%struct.FFFilterContext = type { %struct.AVFilterContext, ptr, i32, i32, ptr, ptr, ptr }
%struct.AVFilterLink = type { ptr, ptr, ptr, ptr, i32, i32, i32, i32, %struct.AVRational, i32, i32, i32, %struct.AVChannelLayout, %struct.AVRational, ptr, i32, %struct.AVFilterFormatsConfig, %struct.AVFilterFormatsConfig }
%struct.AVChannelLayout = type { i32, i32, %union.anon.0, ptr }
%union.anon.0 = type { i64 }
%struct.AVFilterFormatsConfig = type { ptr, ptr, ptr, ptr, ptr }
%struct.AVRational = type { i32, i32 }
%struct.AVFilterCommand = type { double, ptr, ptr, i32, ptr }
%struct.AVFrame = type { [8 x ptr], [8 x i32], ptr, i32, i32, i32, i32, i32, %struct.AVRational, i64, i64, %struct.AVRational, i32, ptr, i32, i32, [8 x ptr], ptr, i32, ptr, i32, i32, i32, i32, i32, i32, i32, i64, ptr, i32, ptr, ptr, i64, i64, i64, i64, ptr, %struct.AVChannelLayout, i64 }

@.str.39 = private unnamed_addr constant [46 x i8] c"Processing command time:%f command:%s arg:%s\0A\00", align 1

; Function Attrs: nounwind uwtable
define internal void @command_queue_pop(ptr noundef %0) #0 {
  %2 = alloca ptr, align 8
  %3 = alloca ptr, align 8
  %4 = alloca ptr, align 8
  store ptr %0, ptr %2, align 8, !tbaa !4
  call void @llvm.lifetime.start.p0(i64 8, ptr %3) #11
  %5 = load ptr, ptr %2, align 8, !tbaa !4
  %6 = call ptr @fffilterctx(ptr noundef %5)
  store ptr %6, ptr %3, align 8, !tbaa !74
  call void @llvm.lifetime.start.p0(i64 8, ptr %4) #11
  %7 = load ptr, ptr %3, align 8, !tbaa !74
  %8 = getelementptr inbounds nuw %struct.FFFilterContext, ptr %7, i32 0, i32 6
  %9 = load ptr, ptr %8, align 8, !tbaa !149
  store ptr %9, ptr %4, align 8, !tbaa !151
  %10 = load ptr, ptr %4, align 8, !tbaa !151
  %11 = getelementptr inbounds nuw %struct.AVFilterCommand, ptr %10, i32 0, i32 2
  call void @av_freep(ptr noundef %11)
  %12 = load ptr, ptr %4, align 8, !tbaa !151
  %13 = getelementptr inbounds nuw %struct.AVFilterCommand, ptr %12, i32 0, i32 1
  call void @av_freep(ptr noundef %13)
  %14 = load ptr, ptr %4, align 8, !tbaa !151
  %15 = getelementptr inbounds nuw %struct.AVFilterCommand, ptr %14, i32 0, i32 4
  %16 = load ptr, ptr %15, align 8, !tbaa !152
  %17 = load ptr, ptr %3, align 8, !tbaa !74
  %18 = getelementptr inbounds nuw %struct.FFFilterContext, ptr %17, i32 0, i32 6
  store ptr %16, ptr %18, align 8, !tbaa !149
  %19 = load ptr, ptr %4, align 8, !tbaa !151
  call void @av_free(ptr noundef %19)
  call void @llvm.lifetime.end.p0(i64 8, ptr %4) #11
  call void @llvm.lifetime.end.p0(i64 8, ptr %3) #11
  ret void
}

; Function Attrs: inlinehint nounwind uwtable
define internal double @av_q2d(i64 %0) #4 {
  %2 = alloca %struct.AVRational, align 4
  store i64 %0, ptr %2, align 4
  %3 = getelementptr inbounds nuw %struct.AVRational, ptr %2, i32 0, i32 0
  %4 = load i32, ptr %3, align 4, !tbaa !101
  %5 = sitofp i32 %4 to double
  %6 = getelementptr inbounds nuw %struct.AVRational, ptr %2, i32 0, i32 1
  %7 = load i32, ptr %6, align 4, !tbaa !102
  %8 = sitofp i32 %7 to double
  %9 = fdiv nsz double %5, %8
  ret double %9
}

; Function Attrs: inlinehint nounwind uwtable
define internal ptr @fffilterctx(ptr noundef %0) #4 {
  %2 = alloca ptr, align 8
  store ptr %0, ptr %2, align 8, !tbaa !4
  %3 = load ptr, ptr %2, align 8, !tbaa !4
  ret ptr %3
}

; Function Attrs: nounwind uwtable
define i32 @ff_inlink_process_commands(ptr noundef %0, ptr noundef %1) #0 {
  %3 = alloca ptr, align 8
  %4 = alloca ptr, align 8
  %5 = alloca ptr, align 8
  %6 = alloca ptr, align 8
  store ptr %0, ptr %3, align 8, !tbaa !26
  store ptr %1, ptr %4, align 8, !tbaa !183
  call void @llvm.lifetime.start.p0(i64 8, ptr %5) #11
  %7 = load ptr, ptr %3, align 8, !tbaa !26
  %8 = getelementptr inbounds nuw %struct.AVFilterLink, ptr %7, i32 0, i32 2
  %9 = load ptr, ptr %8, align 8, !tbaa !57
  %10 = call ptr @fffilterctx(ptr noundef %9)
  store ptr %10, ptr %5, align 8, !tbaa !74
  call void @llvm.lifetime.start.p0(i64 8, ptr %6) #11
  %11 = load ptr, ptr %5, align 8, !tbaa !74
  %12 = getelementptr inbounds nuw %struct.FFFilterContext, ptr %11, i32 0, i32 6
  %13 = load ptr, ptr %12, align 8, !tbaa !149
  store ptr %13, ptr %6, align 8, !tbaa !151
  br label %14

14:                                               ; preds = %33, %2
  %15 = load ptr, ptr %6, align 8, !tbaa !151
  %16 = icmp ne ptr %15, null
  br i1 %16, label %17, label %31

17:                                               ; preds = %14
  %18 = load ptr, ptr %6, align 8, !tbaa !151
  %19 = getelementptr inbounds nuw %struct.AVFilterCommand, ptr %18, i32 0, i32 0
  %20 = load double, ptr %19, align 8, !tbaa !215
  %21 = load ptr, ptr %4, align 8, !tbaa !183
  %22 = getelementptr inbounds nuw %struct.AVFrame, ptr %21, i32 0, i32 9
  %23 = load i64, ptr %22, align 8, !tbaa !208
  %24 = sitofp i64 %23 to double
  %25 = load ptr, ptr %3, align 8, !tbaa !26
  %26 = getelementptr inbounds nuw %struct.AVFilterLink, ptr %25, i32 0, i32 13
  %27 = load i64, ptr %26, align 8
  %28 = call nsz double @av_q2d(i64 %27)
  %29 = fmul nsz double %24, %28
  %30 = fcmp nsz ole double %20, %29
  br label %31

31:                                               ; preds = %17, %14
  %32 = phi i1 [ false, %14 ], [ %30, %17 ]
  br i1 %32, label %33, label %65

33:                                               ; preds = %31
  %34 = load ptr, ptr %3, align 8, !tbaa !26
  %35 = getelementptr inbounds nuw %struct.AVFilterLink, ptr %34, i32 0, i32 2
  %36 = load ptr, ptr %35, align 8, !tbaa !57
  %37 = load ptr, ptr %6, align 8, !tbaa !151
  %38 = getelementptr inbounds nuw %struct.AVFilterCommand, ptr %37, i32 0, i32 0
  %39 = load double, ptr %38, align 8, !tbaa !215
  %40 = load ptr, ptr %6, align 8, !tbaa !151
  %41 = getelementptr inbounds nuw %struct.AVFilterCommand, ptr %40, i32 0, i32 1
  %42 = load ptr, ptr %41, align 8, !tbaa !216
  %43 = load ptr, ptr %6, align 8, !tbaa !151
  %44 = getelementptr inbounds nuw %struct.AVFilterCommand, ptr %43, i32 0, i32 2
  %45 = load ptr, ptr %44, align 8, !tbaa !217
  call void (ptr, i32, ptr, ...) @av_log(ptr noundef %36, i32 noundef 48, ptr noundef @.str.39, double noundef %39, ptr noundef %42, ptr noundef %45)
  %46 = load ptr, ptr %3, align 8, !tbaa !26
  %47 = getelementptr inbounds nuw %struct.AVFilterLink, ptr %46, i32 0, i32 2
  %48 = load ptr, ptr %47, align 8, !tbaa !57
  %49 = load ptr, ptr %6, align 8, !tbaa !151
  %50 = getelementptr inbounds nuw %struct.AVFilterCommand, ptr %49, i32 0, i32 1
  %51 = load ptr, ptr %50, align 8, !tbaa !216
  %52 = load ptr, ptr %6, align 8, !tbaa !151
  %53 = getelementptr inbounds nuw %struct.AVFilterCommand, ptr %52, i32 0, i32 2
  %54 = load ptr, ptr %53, align 8, !tbaa !217
  %55 = load ptr, ptr %6, align 8, !tbaa !151
  %56 = getelementptr inbounds nuw %struct.AVFilterCommand, ptr %55, i32 0, i32 3
  %57 = load i32, ptr %56, align 8, !tbaa !218
  %58 = call i32 @avfilter_process_command(ptr noundef %48, ptr noundef %51, ptr noundef %54, ptr noundef null, i32 noundef 0, i32 noundef %57)
  %59 = load ptr, ptr %3, align 8, !tbaa !26
  %60 = getelementptr inbounds nuw %struct.AVFilterLink, ptr %59, i32 0, i32 2
  %61 = load ptr, ptr %60, align 8, !tbaa !57
  call void @command_queue_pop(ptr noundef %61)
  %62 = load ptr, ptr %5, align 8, !tbaa !74
  %63 = getelementptr inbounds nuw %struct.FFFilterContext, ptr %62, i32 0, i32 6
  %64 = load ptr, ptr %63, align 8, !tbaa !149
  store ptr %64, ptr %6, align 8, !tbaa !151
  br label %14, !llvm.loop !219

65:                                               ; preds = %31
  call void @llvm.lifetime.end.p0(i64 8, ptr %6) #11
  call void @llvm.lifetime.end.p0(i64 8, ptr %5) #11
  ret i32 0
}