; Function Attrs: nounwind uwtable
define noundef i32 @ff_inlink_process_commands(ptr noundef readonly captures(none) %0, ptr noundef readonly captures(none) %1) local_unnamed_addr #0 {
  %3 = getelementptr inbounds nuw i8, ptr %0, i64 16
  %4 = load ptr, ptr %3, align 8, !tbaa !47
  %5 = getelementptr inbounds nuw i8, ptr %4, i64 184
  %.016 = load ptr, ptr %5, align 8, !tbaa !124
  %.not17 = icmp eq ptr %.016, null
  br i1 %.not17, label %.critedge, label %.lr.ph

.lr.ph:                                           ; preds = %2
  %6 = getelementptr inbounds nuw i8, ptr %1, i64 136
  %7 = getelementptr inbounds nuw i8, ptr %0, i64 96
  br label %8

8:                                                ; preds = %.lr.ph, %18
  %.018 = phi ptr [ %.016, %.lr.ph ], [ %.0, %18 ]
  %9 = load double, ptr %.018, align 8, !tbaa !185
  %10 = load i64, ptr %6, align 8, !tbaa !172
  %11 = sitofp i64 %10 to double
  %12 = load i64, ptr %7, align 8
  %.sroa.0.0.extract.trunc.i = trunc i64 %12 to i32
  %.sroa.2.0.extract.shift.i = lshr i64 %12, 32
  %.sroa.2.0.extract.trunc.i = trunc nuw i64 %.sroa.2.0.extract.shift.i to i32
  %13 = sitofp i32 %.sroa.0.0.extract.trunc.i to double
  %14 = sitofp i32 %.sroa.2.0.extract.trunc.i to double
  %15 = fdiv nsz double %13, %14
  %16 = fmul nsz double %15, %11
  %17 = fcmp nsz ugt double %9, %16
  br i1 %17, label %.critedge, label %18

18:                                               ; preds = %8
  %19 = load ptr, ptr %3, align 8, !tbaa !47
  %20 = getelementptr inbounds nuw i8, ptr %.018, i64 8
  %21 = load ptr, ptr %20, align 8, !tbaa !186
  %22 = getelementptr inbounds nuw i8, ptr %.018, i64 16
  %23 = load ptr, ptr %22, align 8, !tbaa !187
  tail call void (ptr, i32, ptr, ...) @av_log(ptr noundef %19, i32 noundef 48, ptr noundef nonnull @.str.39, double noundef %9, ptr noundef %21, ptr noundef %23) #15
  %24 = load ptr, ptr %3, align 8, !tbaa !47
  %25 = load ptr, ptr %20, align 8, !tbaa !186
  %26 = load ptr, ptr %22, align 8, !tbaa !187
  %27 = getelementptr inbounds nuw i8, ptr %.018, i64 24
  %28 = load i32, ptr %27, align 8, !tbaa !188
  %29 = tail call i32 @avfilter_process_command(ptr noundef %24, ptr noundef %25, ptr noundef %26, ptr noundef null, i32 noundef 0, i32 noundef %28)
  %30 = load ptr, ptr %3, align 8, !tbaa !47
  %31 = getelementptr inbounds nuw i8, ptr %30, i64 184
  %32 = load ptr, ptr %31, align 8, !tbaa !124
  %33 = getelementptr inbounds nuw i8, ptr %32, i64 16
  tail call void @av_freep(ptr noundef nonnull %33) #15
  %34 = getelementptr inbounds nuw i8, ptr %32, i64 8
  tail call void @av_freep(ptr noundef nonnull %34) #15
  %35 = getelementptr inbounds nuw i8, ptr %32, i64 32
  %36 = load ptr, ptr %35, align 8, !tbaa !125
  store ptr %36, ptr %31, align 8, !tbaa !124
  tail call void @av_free(ptr noundef %32) #15
  %.0 = load ptr, ptr %5, align 8, !tbaa !124
  %.not = icmp eq ptr %.0, null
  br i1 %.not, label %.critedge, label %8, !llvm.loop !189

.critedge:                                        ; preds = %8, %18, %2
  ret i32 0
}